; Function Attrs: mustprogress nofree norecurse nosync nounwind willreturn memory(argmem: read) uwtable
define { i64, i64 } @_ZN2cv6detail8tracking16TrackerSamplerCS14getTrackingROIEf(ptr noundef nonnull readonly align 8 captures(none) dereferenceable(100) %0, float noundef %1) local_unnamed_addr #11 align 2 {
  %3 = getelementptr inbounds nuw i8, ptr %0, i64 52
  %4 = getelementptr inbounds nuw i8, ptr %0, i64 56
  %5 = load i32, ptr %4, align 8, !tbaa !179
  %6 = sitofp i32 %5 to float
  %7 = getelementptr inbounds nuw i8, ptr %0, i64 64
  %8 = load i32, ptr %7, align 8, !tbaa !181
  %9 = sitofp i32 %8 to float
  %10 = fneg float %9
  %11 = tail call float @llvm.fmuladd.f32(float %9, float %1, float %10)
  %12 = fmul float %11, 5.000000e-01
  %13 = fsub float %6, %12
  %14 = fptosi float %13 to i32
  %spec.select.i = tail call i32 @llvm.smax.i32(i32 %14, i32 0)
  %15 = load i32, ptr %3, align 4, !tbaa !177
  %16 = sitofp i32 %15 to float
  %17 = getelementptr inbounds nuw i8, ptr %0, i64 60
  %18 = load i32, ptr %17, align 4, !tbaa !180
  %19 = sitofp i32 %18 to float
  %20 = fneg float %19
  %21 = tail call float @llvm.fmuladd.f32(float %19, float %1, float %20)
  %22 = fmul float %21, 5.000000e-01
  %23 = fsub float %16, %22
  %24 = fptosi float %23 to i32
  %storemerge12.i = tail call i32 @llvm.smax.i32(i32 %24, i32 0)
  %25 = fmul float %1, %9
  %26 = fptosi float %25 to i32
  %27 = fmul float %1, %19
  %28 = fptosi float %27 to i32
  %.sroa.0.sroa.3.0.insert.ext.i = zext nneg i32 %spec.select.i to i64
  %.sroa.0.sroa.3.0.insert.shift.i = shl nuw nsw i64 %.sroa.0.sroa.3.0.insert.ext.i, 32
  %29 = add nsw i32 %spec.select.i, %26
  %30 = getelementptr inbounds nuw i8, ptr %0, i64 80
  %31 = load i32, ptr %30, align 8, !tbaa !189
  %32 = icmp sgt i32 %29, %31
  %33 = sub nsw i32 %31, %spec.select.i
  %.sroa.5.0.v.v.v = select i1 %32, i32 %33, i32 %26
  %.sroa.5.0.v.v = zext i32 %.sroa.5.0.v.v.v to i64
  %.sroa.5.0.v = shl nuw i64 %.sroa.5.0.v.v, 32
  %34 = add nsw i32 %storemerge12.i, %28
  %35 = getelementptr inbounds nuw i8, ptr %0, i64 76
  %36 = load i32, ptr %35, align 4, !tbaa !190
  %37 = icmp sgt i32 %34, %36
  %38 = sub nsw i32 %36, %storemerge12.i
  %.sroa.5.1.v.v = select i1 %37, i32 %38, i32 %28
  %.sroa.5.1.v = zext i32 %.sroa.5.1.v.v to i64
  %.sroa.5.1 = or disjoint i64 %.sroa.5.0.v, %.sroa.5.1.v
  %.sroa.0.sroa.0.0.insert.ext = zext nneg i32 %storemerge12.i to i64
  %.sroa.0.sroa.0.0.insert.insert = or disjoint i64 %.sroa.0.sroa.3.0.insert.shift.i, %.sroa.0.sroa.0.0.insert.ext
  %.fca.0.insert = insertvalue { i64, i64 } poison, i64 %.sroa.0.sroa.0.0.insert.insert, 0
  %.fca.1.insert = insertvalue { i64, i64 } %.fca.0.insert, i64 %.sroa.5.1, 1
  ret { i64, i64 } %.fca.1.insert
}